target datalayout = "e-m:e-p270:32:32-p271:32:32-p272:64:64-i64:64-i128:128-f80:128-n8:16:32:64-S128"
target triple = "x86_64-pc-linux-gnu"

%"class.std::__shared_count" = type { ptr }
%"class.arrow::Status" = type { ptr }
%"struct.arrow::Status::State" = type { i8, i8, %"class.std::__cxx11::basic_string", %"class.std::shared_ptr.114" }
%"class.std::__cxx11::basic_string" = type { %"struct.std::__cxx11::basic_string<char>::_Alloc_hider", i64, %union.anon }
%"struct.std::__cxx11::basic_string<char>::_Alloc_hider" = type { ptr }
%union.anon = type { i64, [8 x i8] }
%"class.std::shared_ptr.114" = type { %"class.std::__shared_ptr.115" }
%"class.std::__shared_ptr.115" = type { ptr, %"class.std::__shared_count" }
%"class.arrow::Result.53" = type { %"class.arrow::Status", %"class.arrow::internal::AlignedStorage.56" }
%"class.arrow::internal::AlignedStorage.56" = type { [8 x i8] }

@_ZN5arrow3ipcL13kPaddingBytesE = internal constant [64 x i8] zeroinitializer, align 16

; Function Attrs: mustprogress nounwind uwtable
define linkonce_odr noundef ptr @_ZSt7launderIlEPT_S1_(ptr noundef %0) #1 comdat {
  %2 = alloca ptr, align 8
  store ptr %0, ptr %2, align 8, !tbaa !55
  %3 = load ptr, ptr %2, align 8, !tbaa !55
  ret ptr %3
}

; Function Attrs: mustprogress nounwind uwtable
define linkonce_odr void @_ZN5arrow8internal14AlignedStorageIlE7destroyEv(ptr noundef nonnull align 8 dereferenceable(8) %0) #1 comdat align 2 {
  %2 = alloca ptr, align 8
  store ptr %0, ptr %2, align 8, !tbaa !747
  ret void
}

; Function Attrs: mustprogress nounwind uwtable
define linkonce_odr noundef ptr @_ZN5arrow8internal14AlignedStorageIlE3getEv(ptr noundef nonnull align 8 dereferenceable(8) %0) #1 comdat align 2 {
  %2 = alloca ptr, align 8
  store ptr %0, ptr %2, align 8, !tbaa !747
  %3 = load ptr, ptr %2, align 8
  %4 = getelementptr inbounds nuw %"class.arrow::internal::AlignedStorage.56", ptr %3, i32 0, i32 0
  %5 = call noundef ptr @_ZSt7launderIlEPT_S1_(ptr noundef %4) #21
  ret ptr %5
}

; Function Attrs: mustprogress nounwind uwtable
define linkonce_odr void @_ZN5arrow4util18EqualityComparableINS_6ResultIlEEED2Ev(ptr noundef nonnull align 1 dereferenceable(1) %0) unnamed_addr #1 comdat align 2 {
  %2 = alloca ptr, align 8
  store ptr %0, ptr %2, align 8, !tbaa !745
  ret void
}

; Function Attrs: mustprogress nounwind uwtable
define linkonce_odr void @_ZN5arrow6StatusD2Ev(ptr noundef nonnull align 8 dereferenceable(8) %0) unnamed_addr #1 comdat align 2 {
  %2 = alloca ptr, align 8
  store ptr %0, ptr %2, align 8, !tbaa !29
  %3 = load ptr, ptr %2, align 8
  %4 = getelementptr inbounds nuw %"class.arrow::Status", ptr %3, i32 0, i32 0
  %5 = load ptr, ptr %4, align 8, !tbaa !33
  %6 = icmp ne ptr %5, null
  %7 = xor i1 %6, true
  %8 = xor i1 %7, true
  %9 = zext i1 %8 to i64
  %10 = call i64 @llvm.expect.i64(i64 %9, i64 0)
  %11 = icmp ne i64 %10, 0
  br i1 %11, label %12, label %20

12:                                               ; preds = %1
  %13 = getelementptr inbounds nuw %"class.arrow::Status", ptr %3, i32 0, i32 0
  %14 = load ptr, ptr %13, align 8, !tbaa !33
  %15 = getelementptr inbounds nuw %"struct.arrow::Status::State", ptr %14, i32 0, i32 1
  %16 = load i8, ptr %15, align 1, !tbaa !36, !range !47, !noundef !48
  %17 = trunc i8 %16 to i1
  br i1 %17, label %19, label %18

18:                                               ; preds = %12
  call void @_ZN5arrow6Status11DeleteStateEv(ptr noundef nonnull align 8 dereferenceable(8) %3) #21
  br label %19

19:                                               ; preds = %18, %12
  br label %20

20:                                               ; preds = %19, %1
  call void @_ZN5arrow4util19ToStringOstreamableINS_6StatusEED2Ev(ptr noundef nonnull align 1 dereferenceable(1) %3) #21
  call void @_ZN5arrow4util18EqualityComparableINS_6StatusEED2Ev(ptr noundef nonnull align 1 dereferenceable(1) %3) #21
  ret void
}

; Function Attrs: mustprogress nounwind uwtable
define linkonce_odr void @_ZN5arrow6ResultIlE7DestroyEv(ptr noundef nonnull align 8 dereferenceable(16) %0) #1 comdat align 2 {
  %2 = alloca ptr, align 8
  store ptr %0, ptr %2, align 8, !tbaa !175
  %3 = load ptr, ptr %2, align 8
  %4 = getelementptr inbounds nuw %"class.arrow::Result.53", ptr %3, i32 0, i32 0
  %5 = call noundef zeroext i1 @_ZNK5arrow6Status2okEv(ptr noundef nonnull align 8 dereferenceable(8) %4)
  %6 = xor i1 %5, true
  %7 = xor i1 %6, true
  %8 = zext i1 %7 to i64
  %9 = call i64 @llvm.expect.i64(i64 %8, i64 1)
  %10 = icmp ne i64 %9, 0
  br i1 %10, label %11, label %13

11:                                               ; preds = %1
  %12 = getelementptr inbounds nuw %"class.arrow::Result.53", ptr %3, i32 0, i32 1
  call void @_ZN5arrow8internal14AlignedStorageIlE7destroyEv(ptr noundef nonnull align 8 dereferenceable(8) %12) #21
  br label %13

13:                                               ; preds = %11, %1
  ret void
}

; Function Attrs: mustprogress nounwind uwtable
define linkonce_odr void @_ZN5arrow6StatusC2Ev(ptr noundef nonnull align 8 dereferenceable(8) %0) unnamed_addr #1 comdat align 2 {
  %2 = alloca ptr, align 8
  store ptr %0, ptr %2, align 8, !tbaa !29
  %3 = load ptr, ptr %2, align 8
  %4 = getelementptr inbounds nuw %"class.arrow::Status", ptr %3, i32 0, i32 0
  store ptr null, ptr %4, align 8, !tbaa !33
  ret void
}

; Function Attrs: mustprogress nounwind uwtable
define linkonce_odr noundef i64 @_ZN5arrow6ResultIlE15MoveValueUnsafeEv(ptr noundef nonnull align 8 dereferenceable(16) %0) #1 comdat align 2 {
  %2 = alloca ptr, align 8
  store ptr %0, ptr %2, align 8, !tbaa !175
  %3 = load ptr, ptr %2, align 8
  %4 = getelementptr inbounds nuw %"class.arrow::Result.53", ptr %3, i32 0, i32 1
  %5 = call noundef ptr @_ZN5arrow8internal14AlignedStorageIlE3getEv(ptr noundef nonnull align 8 dereferenceable(8) %4) #21
  %6 = load i64, ptr %5, align 8, !tbaa !53
  ret i64 %6
}

; Function Attrs: mustprogress nounwind uwtable
define linkonce_odr void @_ZN5arrow4util18EqualityComparableINS_6StatusEED2Ev(ptr noundef nonnull align 1 dereferenceable(1) %0) unnamed_addr #1 comdat align 2 {
  %2 = alloca ptr, align 8
  store ptr %0, ptr %2, align 8, !tbaa !330
  ret void
}

; Function Attrs: mustprogress nounwind uwtable
define linkonce_odr void @_ZN5arrow4util19ToStringOstreamableINS_6StatusEED2Ev(ptr noundef nonnull align 1 dereferenceable(1) %0) unnamed_addr #1 comdat align 2 {
  %2 = alloca ptr, align 8
  store ptr %0, ptr %2, align 8, !tbaa !328
  ret void
}

; Function Attrs: mustprogress nounwind uwtable
define linkonce_odr noundef zeroext i1 @_ZNK5arrow6Status2okEv(ptr noundef nonnull align 8 dereferenceable(8) %0) #1 comdat align 2 {
  %2 = alloca ptr, align 8
  store ptr %0, ptr %2, align 8, !tbaa !29
  %3 = load ptr, ptr %2, align 8
  %4 = getelementptr inbounds nuw %"class.arrow::Status", ptr %3, i32 0, i32 0
  %5 = load ptr, ptr %4, align 8, !tbaa !33
  %6 = icmp eq ptr %5, null
  ret i1 %6
}

; Function Attrs: mustprogress nounwind uwtable
define linkonce_odr void @_ZN5arrow6ResultIlED2Ev(ptr noundef nonnull align 8 dereferenceable(16) %0) unnamed_addr #1 comdat align 2 {
  %2 = alloca ptr, align 8
  store ptr %0, ptr %2, align 8, !tbaa !175
  %3 = load ptr, ptr %2, align 8
  call void @_ZN5arrow6ResultIlE7DestroyEv(ptr noundef nonnull align 8 dereferenceable(16) %3) #21
  %4 = getelementptr inbounds nuw %"class.arrow::Result.53", ptr %3, i32 0, i32 0
  call void @_ZN5arrow6StatusD2Ev(ptr noundef nonnull align 8 dereferenceable(8) %4) #21
  call void @_ZN5arrow4util18EqualityComparableINS_6ResultIlEEED2Ev(ptr noundef nonnull align 1 dereferenceable(1) %3) #21
  ret void
}

; Function Attrs: mustprogress nounwind uwtable
define linkonce_odr void @_ZN5arrow6Status2OKEv(ptr dead_on_unwind noalias writable sret(%"class.arrow::Status") align 8 %0) #1 comdat align 2 {
  %2 = alloca ptr, align 8
  store ptr %0, ptr %2, align 8
  call void @_ZN5arrow6StatusC2Ev(ptr noundef nonnull align 8 dereferenceable(8) %0) #21
  ret void
}

; Function Attrs: inlinehint mustprogress nounwind uwtable
define internal noundef i64 @_ZN5arrow3ipcL12PaddedLengthEli(i64 noundef %0, i32 noundef %1) #5 {
  %3 = alloca i64, align 8
  %4 = alloca i32, align 4
  store i64 %0, ptr %3, align 8, !tbaa !53
  store i32 %1, ptr %4, align 4, !tbaa !100
  %5 = load i64, ptr %3, align 8, !tbaa !53
  %6 = load i32, ptr %4, align 4, !tbaa !100
  %7 = sext i32 %6 to i64
  %8 = add nsw i64 %5, %7
  %9 = sub nsw i64 %8, 1
  %10 = load i32, ptr %4, align 4, !tbaa !100
  %11 = sext i32 %10 to i64
  %12 = sdiv i64 %9, %11
  %13 = load i32, ptr %4, align 4, !tbaa !100
  %14 = sext i32 %13 to i64
  %15 = mul nsw i64 %12, %14
  ret i64 %15
}

; Function Attrs: mustprogress uwtable
define linkonce_odr noundef i64 @_ZNO5arrow6ResultIlE11ValueUnsafeEv(ptr noundef nonnull align 8 dereferenceable(16) %0) #0 comdat align 2 {
  %2 = alloca ptr, align 8
  store ptr %0, ptr %2, align 8, !tbaa !175
  %3 = load ptr, ptr %2, align 8
  %4 = call noundef i64 @_ZN5arrow6ResultIlE15MoveValueUnsafeEv(ptr noundef nonnull align 8 dereferenceable(16) %3)
  ret i64 %4
}

; Function Attrs: inlinehint mustprogress uwtable
define linkonce_odr void @_ZN5arrow6StatusC2ERKS0_(ptr noundef nonnull align 8 dereferenceable(8) %0, ptr noundef nonnull align 8 dereferenceable(8) %1) unnamed_addr #8 comdat align 2 personality ptr @__gxx_personality_v0 {
  %3 = alloca ptr, align 8
  %4 = alloca ptr, align 8
  %5 = alloca ptr, align 8
  %6 = alloca i32, align 4
  store ptr %0, ptr %3, align 8, !tbaa !29
  store ptr %1, ptr %4, align 8, !tbaa !29
  %7 = load ptr, ptr %3, align 8
  %8 = getelementptr inbounds nuw %"class.arrow::Status", ptr %7, i32 0, i32 0
  store ptr null, ptr %8, align 8, !tbaa !33
  %9 = load ptr, ptr %4, align 8, !tbaa !29
  invoke void @_ZN5arrow6Status8CopyFromERKS0_(ptr noundef nonnull align 8 dereferenceable(8) %7, ptr noundef nonnull align 8 dereferenceable(8) %9)
          to label %10 unwind label %11

10:                                               ; preds = %2
  ret void

11:                                               ; preds = %2
  %12 = landingpad { ptr, i32 }
          cleanup
  %13 = extractvalue { ptr, i32 } %12, 0
  store ptr %13, ptr %5, align 8
  %14 = extractvalue { ptr, i32 } %12, 1
  store i32 %14, ptr %6, align 4
  call void @_ZN5arrow4util19ToStringOstreamableINS_6StatusEED2Ev(ptr noundef nonnull align 1 dereferenceable(1) %7) #21
  call void @_ZN5arrow4util18EqualityComparableINS_6StatusEED2Ev(ptr noundef nonnull align 1 dereferenceable(1) %7) #21
  br label %15

15:                                               ; preds = %11
  %16 = load ptr, ptr %5, align 8
  %17 = load i32, ptr %6, align 4
  %18 = insertvalue { ptr, i32 } poison, ptr %16, 0
  %19 = insertvalue { ptr, i32 } %18, i32 %17, 1
  resume { ptr, i32 } %19
}

; Function Attrs: mustprogress nounwind uwtable
define linkonce_odr noundef nonnull align 8 dereferenceable(8) ptr @_ZNKR5arrow6ResultIlE6statusEv(ptr noundef nonnull align 8 dereferenceable(16) %0) #1 comdat align 2 {
  %2 = alloca ptr, align 8
  store ptr %0, ptr %2, align 8, !tbaa !175
  %3 = load ptr, ptr %2, align 8
  %4 = getelementptr inbounds nuw %"class.arrow::Result.53", ptr %3, i32 0, i32 0
  ret ptr %4
}

; Function Attrs: mustprogress nounwind uwtable
define linkonce_odr noundef zeroext i1 @_ZNK5arrow6ResultIlE2okEv(ptr noundef nonnull align 8 dereferenceable(16) %0) #1 comdat align 2 {
  %2 = alloca ptr, align 8
  store ptr %0, ptr %2, align 8, !tbaa !175
  %3 = load ptr, ptr %2, align 8
  %4 = getelementptr inbounds nuw %"class.arrow::Result.53", ptr %3, i32 0, i32 0
  %5 = call noundef zeroext i1 @_ZNK5arrow6Status2okEv(ptr noundef nonnull align 8 dereferenceable(8) %4)
  ret i1 %5
}

; Function Attrs: mustprogress uwtable
define void @_ZN5arrow3ipc11AlignStreamEPNS_2io12OutputStreamEi(ptr dead_on_unwind noalias writable sret(%"class.arrow::Status") align 8 %0, ptr noundef %1, i32 noundef %2) #0 personality ptr @__gxx_personality_v0 {
  %4 = alloca ptr, align 8
  %5 = alloca ptr, align 8
  %6 = alloca i32, align 4
  %7 = alloca ptr, align 8
  %8 = alloca %"class.arrow::Result.53", align 8
  %9 = alloca ptr, align 8
  %10 = alloca i32, align 4
  %11 = alloca i32, align 4
  %12 = alloca i64, align 8
  %13 = alloca i64, align 8
  store ptr %0, ptr %4, align 8
  store ptr %1, ptr %5, align 8, !tbaa !94
  store i32 %2, ptr %6, align 4, !tbaa !100
  call void @llvm.lifetime.start.p0(i64 8, ptr %7) #21
  call void @llvm.lifetime.start.p0(i64 16, ptr %8) #21
  %14 = load ptr, ptr %5, align 8, !tbaa !94
  %15 = load ptr, ptr %14, align 8, !tbaa !78
  %16 = getelementptr i8, ptr %15, i64 -24
  %17 = load i64, ptr %16, align 8
  %18 = getelementptr inbounds i8, ptr %14, i64 %17
  %19 = load ptr, ptr %18, align 8, !tbaa !78
  %20 = getelementptr inbounds ptr, ptr %19, i64 5
  %21 = load ptr, ptr %20, align 8
  call void %21(ptr dead_on_unwind writable sret(%"class.arrow::Result.53") align 8 %8, ptr noundef nonnull align 8 dereferenceable(28) %18)
  store ptr %8, ptr %7, align 8, !tbaa !175
  br label %22

22:                                               ; preds = %3
  %23 = load ptr, ptr %7, align 8, !tbaa !175
  %24 = invoke noundef zeroext i1 @_ZNK5arrow6ResultIlE2okEv(ptr noundef nonnull align 8 dereferenceable(16) %23)
          to label %25 unwind label %37

25:                                               ; preds = %22
  %26 = xor i1 %24, true
  %27 = xor i1 %26, true
  %28 = xor i1 %27, true
  %29 = zext i1 %28 to i64
  %30 = call i64 @llvm.expect.i64(i64 %29, i64 0)
  %31 = icmp ne i64 %30, 0
  br i1 %31, label %32, label %41

32:                                               ; preds = %25
  %33 = load ptr, ptr %7, align 8, !tbaa !175
  %34 = invoke noundef nonnull align 8 dereferenceable(8) ptr @_ZNKR5arrow6ResultIlE6statusEv(ptr noundef nonnull align 8 dereferenceable(16) %33)
          to label %35 unwind label %37

35:                                               ; preds = %32
  invoke void @_ZN5arrow6StatusC2ERKS0_(ptr noundef nonnull align 8 dereferenceable(8) %0, ptr noundef nonnull align 8 dereferenceable(8) %34)
          to label %36 unwind label %37

36:                                               ; preds = %35
  store i32 1, ptr %11, align 4
  br label %74

37:                                               ; preds = %35, %32, %22
  %38 = landingpad { ptr, i32 }
          cleanup
  %39 = extractvalue { ptr, i32 } %38, 0
  store ptr %39, ptr %9, align 8
  %40 = extractvalue { ptr, i32 } %38, 1
  store i32 %40, ptr %10, align 4
  br label %75

41:                                               ; preds = %25
  br label %42

42:                                               ; preds = %41
  br label %43

43:                                               ; preds = %42
  call void @llvm.lifetime.start.p0(i64 8, ptr %12) #21
  %44 = load ptr, ptr %7, align 8, !tbaa !175
  %45 = invoke noundef i64 @_ZNO5arrow6ResultIlE11ValueUnsafeEv(ptr noundef nonnull align 8 dereferenceable(16) %44)
          to label %46 unwind label %62

46:                                               ; preds = %43
  store i64 %45, ptr %12, align 8, !tbaa !53
  call void @llvm.lifetime.start.p0(i64 8, ptr %13) #21
  %47 = load i64, ptr %12, align 8, !tbaa !53
  %48 = load i32, ptr %6, align 4, !tbaa !100
  %49 = invoke noundef i64 @_ZN5arrow3ipcL12PaddedLengthEli(i64 noundef %47, i32 noundef %48)
          to label %50 unwind label %66

50:                                               ; preds = %46
  %51 = load i64, ptr %12, align 8, !tbaa !53
  %52 = sub nsw i64 %49, %51
  store i64 %52, ptr %13, align 8, !tbaa !53
  %53 = load i64, ptr %13, align 8, !tbaa !53
  %54 = icmp sgt i64 %53, 0
  br i1 %54, label %55, label %70

55:                                               ; preds = %50
  %56 = load ptr, ptr %5, align 8, !tbaa !94
  %57 = load i64, ptr %13, align 8, !tbaa !53
  %58 = load ptr, ptr %56, align 8, !tbaa !78
  %59 = getelementptr inbounds ptr, ptr %58, i64 2
  %60 = load ptr, ptr %59, align 8
  invoke void %60(ptr dead_on_unwind writable sret(%"class.arrow::Status") align 8 %0, ptr noundef nonnull align 8 dereferenceable(8) %56, ptr noundef @_ZN5arrow3ipcL13kPaddingBytesE, i64 noundef %57)
          to label %61 unwind label %66

61:                                               ; preds = %55
  store i32 1, ptr %11, align 4
  br label %72

62:                                               ; preds = %43
  %63 = landingpad { ptr, i32 }
          cleanup
  %64 = extractvalue { ptr, i32 } %63, 0
  store ptr %64, ptr %9, align 8
  %65 = extractvalue { ptr, i32 } %63, 1
  store i32 %65, ptr %10, align 4
  br label %73

66:                                               ; preds = %70, %55, %46
  %67 = landingpad { ptr, i32 }
          cleanup
  %68 = extractvalue { ptr, i32 } %67, 0
  store ptr %68, ptr %9, align 8
  %69 = extractvalue { ptr, i32 } %67, 1
  store i32 %69, ptr %10, align 4
  call void @llvm.lifetime.end.p0(i64 8, ptr %13) #21
  br label %73

70:                                               ; preds = %50
  invoke void @_ZN5arrow6Status2OKEv(ptr dead_on_unwind writable sret(%"class.arrow::Status") align 8 %0)
          to label %71 unwind label %66

71:                                               ; preds = %70
  store i32 1, ptr %11, align 4
  br label %72

72:                                               ; preds = %71, %61
  call void @llvm.lifetime.end.p0(i64 8, ptr %13) #21
  call void @llvm.lifetime.end.p0(i64 8, ptr %12) #21
  br label %74

73:                                               ; preds = %66, %62
  call void @llvm.lifetime.end.p0(i64 8, ptr %12) #21
  br label %75

74:                                               ; preds = %72, %36
  call void @_ZN5arrow6ResultIlED2Ev(ptr noundef nonnull align 8 dereferenceable(16) %8) #21
  call void @llvm.lifetime.end.p0(i64 16, ptr %8) #21
  call void @llvm.lifetime.end.p0(i64 8, ptr %7) #21
  ret void

75:                                               ; preds = %73, %37
  call void @_ZN5arrow6ResultIlED2Ev(ptr noundef nonnull align 8 dereferenceable(16) %8) #21
  call void @llvm.lifetime.end.p0(i64 16, ptr %8) #21
  call void @llvm.lifetime.end.p0(i64 8, ptr %7) #21
  br label %76

76:                                               ; preds = %75
  %77 = load ptr, ptr %9, align 8
  %78 = load i32, ptr %10, align 4
  %79 = insertvalue { ptr, i32 } poison, ptr %77, 0
  %80 = insertvalue { ptr, i32 } %79, i32 %78, 1
  resume { ptr, i32 } %80
}