; Function Attrs: mustprogress uwtable
define void @_ZN5arrow3ipc11AlignStreamEPNS_2io12OutputStreamEi(ptr dead_on_unwind noalias writable sret(%"class.arrow::Status") align 8 %0, ptr noundef %1, i32 noundef %2) local_unnamed_addr #0 personality ptr @__gxx_personality_v0 {
  %4 = alloca %"class.arrow::Result.53", align 8
  call void @llvm.lifetime.start.p0(i64 16, ptr nonnull %4) #29
  %5 = load ptr, ptr %1, align 8, !tbaa !20
  %6 = getelementptr i8, ptr %5, i64 -24
  %7 = load i64, ptr %6, align 8
  %8 = getelementptr inbounds i8, ptr %1, i64 %7
  %9 = load ptr, ptr %8, align 8, !tbaa !20
  %10 = getelementptr inbounds nuw i8, ptr %9, i64 40
  %11 = load ptr, ptr %10, align 8
  call void %11(ptr dead_on_unwind nonnull writable sret(%"class.arrow::Result.53") align 8 %4, ptr noundef nonnull align 8 dereferenceable(28) %8)
  %12 = load ptr, ptr %4, align 8, !tbaa !28
  %13 = icmp eq ptr %12, null
  br i1 %13, label %17, label %14, !prof !31

14:                                               ; preds = %3
  store ptr null, ptr %0, align 8, !tbaa !28
  invoke void @_ZN5arrow6Status8CopyFromERKS0_(ptr noundef nonnull align 8 dereferenceable(8) %0, ptr noundef nonnull align 8 dereferenceable(8) %4)
          to label %_ZN5arrow6StatusC2ERKS0_.exit unwind label %15

15:                                               ; preds = %14
  %16 = landingpad { ptr, i32 }
          cleanup
  br label %39

17:                                               ; preds = %3
  %18 = getelementptr inbounds nuw i8, ptr %4, i64 8
  %19 = load i64, ptr %18, align 8, !tbaa !64
  %20 = sext i32 %2 to i64
  %21 = add nsw i64 %20, -1
  %22 = add i64 %21, %19
  %23 = srem i64 %22, %20
  %24 = sub nsw i64 %21, %23
  %25 = icmp sgt i64 %24, 0
  br i1 %25, label %26, label %32

26:                                               ; preds = %17
  %27 = load ptr, ptr %1, align 8, !tbaa !20
  %28 = getelementptr inbounds nuw i8, ptr %27, i64 16
  %29 = load ptr, ptr %28, align 8
  invoke void %29(ptr dead_on_unwind writable sret(%"class.arrow::Status") align 8 %0, ptr noundef nonnull align 8 dereferenceable(8) %1, ptr noundef nonnull @_ZN5arrow3ipcL13kPaddingBytesE, i64 noundef %24)
          to label %_ZN5arrow6StatusC2ERKS0_.exit unwind label %30

30:                                               ; preds = %26
  %31 = landingpad { ptr, i32 }
          cleanup
  br label %39

32:                                               ; preds = %17
  store ptr null, ptr %0, align 8, !tbaa !28, !alias.scope !489
  br label %_ZN5arrow6StatusC2ERKS0_.exit

_ZN5arrow6StatusC2ERKS0_.exit:                    ; preds = %14, %32, %26
  %33 = load ptr, ptr %4, align 8, !tbaa !28
  %.not.i.i = icmp eq ptr %33, null
  br i1 %.not.i.i, label %_ZN5arrow6ResultIlED2Ev.exit, label %34, !prof !31

34:                                               ; preds = %_ZN5arrow6StatusC2ERKS0_.exit
  %35 = getelementptr inbounds nuw i8, ptr %33, i64 1
  %36 = load i8, ptr %35, align 1, !tbaa !32, !range !43, !noundef !44
  %37 = trunc nuw i8 %36 to i1
  br i1 %37, label %_ZN5arrow6ResultIlED2Ev.exit, label %38

38:                                               ; preds = %34
  call void @_ZN5arrow6Status11DeleteStateEv(ptr noundef nonnull align 8 dereferenceable(16) %4) #29
  br label %_ZN5arrow6ResultIlED2Ev.exit

_ZN5arrow6ResultIlED2Ev.exit:                     ; preds = %_ZN5arrow6StatusC2ERKS0_.exit, %34, %38
  call void @llvm.lifetime.end.p0(i64 16, ptr nonnull %4) #29
  ret void

39:                                               ; preds = %30, %15
  %.pn15 = phi { ptr, i32 } [ %16, %15 ], [ %31, %30 ]
  %40 = load ptr, ptr %4, align 8, !tbaa !28
  %.not.i.i17 = icmp eq ptr %40, null
  br i1 %.not.i.i17, label %_ZN5arrow6ResultIlED2Ev.exit18, label %41, !prof !31

41:                                               ; preds = %39
  %42 = getelementptr inbounds nuw i8, ptr %40, i64 1
  %43 = load i8, ptr %42, align 1, !tbaa !32, !range !43, !noundef !44
  %44 = trunc nuw i8 %43 to i1
  br i1 %44, label %_ZN5arrow6ResultIlED2Ev.exit18, label %45

45:                                               ; preds = %41
  call void @_ZN5arrow6Status11DeleteStateEv(ptr noundef nonnull align 8 dereferenceable(16) %4) #29
  br label %_ZN5arrow6ResultIlED2Ev.exit18

_ZN5arrow6ResultIlED2Ev.exit18:                   ; preds = %39, %41, %45
  call void @llvm.lifetime.end.p0(i64 16, ptr nonnull %4) #29
  resume { ptr, i32 } %.pn15
}